target datalayout = "e-m:e-p270:32:32-p271:32:32-p272:64:64-i64:64-i128:128-f80:128-n8:16:32:64-S128"
target triple = "x86_64-pc-linux-gnu"

%"struct.cv::DetectionBasedTracker::InnerParameters" = type { i32, i32, i32, i32, float, float, float }

; Function Attrs: mustprogress nounwind uwtable
define void @_ZN2cv21DetectionBasedTracker15InnerParametersC2Ev(ptr noundef nonnull align 4 dereferenceable(28) %0) unnamed_addr #2 align 2 {
  %2 = alloca ptr, align 8
  store ptr %0, ptr %2, align 8, !tbaa !126
  %3 = load ptr, ptr %2, align 8
  %4 = getelementptr inbounds nuw %"struct.cv::DetectionBasedTracker::InnerParameters", ptr %3, i32 0, i32 0
  store i32 4, ptr %4, align 4, !tbaa !128
  %5 = getelementptr inbounds nuw %"struct.cv::DetectionBasedTracker::InnerParameters", ptr %3, i32 0, i32 1
  store i32 6, ptr %5, align 4, !tbaa !129
  %6 = getelementptr inbounds nuw %"struct.cv::DetectionBasedTracker::InnerParameters", ptr %3, i32 0, i32 2
  store i32 3, ptr %6, align 4, !tbaa !130
  %7 = getelementptr inbounds nuw %"struct.cv::DetectionBasedTracker::InnerParameters", ptr %3, i32 0, i32 3
  store i32 3, ptr %7, align 4, !tbaa !131
  %8 = getelementptr inbounds nuw %"struct.cv::DetectionBasedTracker::InnerParameters", ptr %3, i32 0, i32 4
  store float 2.000000e+00, ptr %8, align 4, !tbaa !132
  %9 = getelementptr inbounds nuw %"struct.cv::DetectionBasedTracker::InnerParameters", ptr %3, i32 0, i32 5
  store float 0x3FEB333340000000, ptr %9, align 4, !tbaa !133
  %10 = getelementptr inbounds nuw %"struct.cv::DetectionBasedTracker::InnerParameters", ptr %3, i32 0, i32 6
  store float 0x3FE99999A0000000, ptr %10, align 4, !tbaa !134
  ret void
}