; Function Attrs: mustprogress nofree norecurse nosync nounwind willreturn memory(argmem: write) uwtable
define void @_ZN2cv21DetectionBasedTracker15InnerParametersC2Ev(ptr noundef nonnull writeonly align 4 captures(none) dereferenceable(28) initializes((0, 28)) %0) unnamed_addr #13 align 2 {
  store i32 4, ptr %0, align 4, !tbaa !110
  %2 = getelementptr inbounds nuw i8, ptr %0, i64 4
  store i32 6, ptr %2, align 4, !tbaa !111
  %3 = getelementptr inbounds nuw i8, ptr %0, i64 8
  store i32 3, ptr %3, align 4, !tbaa !112
  %4 = getelementptr inbounds nuw i8, ptr %0, i64 12
  store i32 3, ptr %4, align 4, !tbaa !113
  %5 = getelementptr inbounds nuw i8, ptr %0, i64 16
  store float 2.000000e+00, ptr %5, align 4, !tbaa !114
  %6 = getelementptr inbounds nuw i8, ptr %0, i64 20
  store float 0x3FEB333340000000, ptr %6, align 4, !tbaa !115
  %7 = getelementptr inbounds nuw i8, ptr %0, i64 24
  store float 0x3FE99999A0000000, ptr %7, align 4, !tbaa !116
  ret void
}